; Function Attrs: null_pointer_is_valid sspstrong uwtable
define internal i32 @dissect_l2tp_ip(ptr noundef %0, ptr noundef %1, ptr noundef %2, ptr readnone captures(none) %3) #0 {
  %5 = tail call ptr @find_or_create_conversation(ptr noundef %1)
  %6 = load i32, ptr @proto_l2tp, align 4
  %7 = tail call ptr @conversation_get_proto_data(ptr noundef %5, i32 noundef %6)
  %.not = icmp eq ptr %7, null
  br i1 %.not, label %8, label %13

8:                                                ; preds = %4
  %9 = tail call ptr @wmem_file_scope()
  %10 = tail call noalias dereferenceable_or_null(72) ptr @wmem_alloc0(ptr noundef %9, i64 noundef 72) #10
  %11 = getelementptr inbounds nuw i8, ptr %10, i64 60
  store i32 0, ptr %11, align 4
  %12 = load i32, ptr @proto_l2tp, align 4
  tail call void @conversation_add_proto_data(ptr noundef %5, i32 noundef %12, ptr noundef %10)
  br label %13

13:                                               ; preds = %8, %4
  %.0 = phi ptr [ %7, %4 ], [ %10, %8 ]
  %14 = getelementptr inbounds nuw i8, ptr %1, i64 8
  %15 = load ptr, ptr %14, align 8
  tail call void @col_set_str(ptr noundef %15, i32 noundef 35, ptr noundef nonnull @.str.686)
  %16 = load ptr, ptr %14, align 8
  tail call void @col_clear(ptr noundef %16, i32 noundef 25)
  %17 = tail call i32 @tvb_get_ntohl(ptr noundef %0, i32 noundef 0)
  %18 = icmp eq i32 %17, 0
  br i1 %18, label %19, label %20

19:                                               ; preds = %13
  tail call fastcc void @process_l2tpv3_control(ptr noundef %0, ptr noundef %1, ptr noundef %2, i32 noundef 4, ptr noundef %.0)
  br label %27

20:                                               ; preds = %13
  %21 = load i32, ptr @proto_l2tp, align 4
  %22 = tail call ptr @proto_tree_add_item(ptr noundef %2, i32 noundef %21, ptr noundef %0, i32 noundef 0, i32 noundef 4, i32 noundef 0)
  %23 = load i32, ptr @ett_l2tp, align 4
  %24 = tail call ptr @proto_item_add_subtree(ptr noundef %22, i32 noundef %23)
  tail call void (ptr, ptr, ...) @proto_item_append_text(ptr noundef %22, ptr noundef nonnull @.str.695)
  %25 = getelementptr inbounds nuw i8, ptr %.0, i64 64
  %26 = load ptr, ptr %25, align 8
  tail call fastcc void @process_l2tpv3_data(ptr noundef %0, ptr noundef %1, ptr noundef %2, ptr noundef %24, ptr noundef %22, i32 0, ptr noundef %26)
  br label %27

27:                                               ; preds = %20, %19
  %28 = tail call i32 @tvb_captured_length(ptr noundef %0)
  ret i32 %28
}